target datalayout = "e-m:e-p270:32:32-p271:32:32-p272:64:64-i64:64-f80:128-n8:16:32:64-S128"
target triple = "x86_64-pc-linux-gnu"

@.str = private unnamed_addr constant [6 x i8] c"%d %d\00", align 1
@.str.1 = private unnamed_addr constant [3 x i8] c"%d\00", align 1
@.str.2 = private unnamed_addr constant [4 x i8] c"%d \00", align 1
@.str.3 = private unnamed_addr constant [4 x i8] c"%d\0A\00", align 1

; Function Attrs: noinline nounwind uwtable
define dso_local i32 @main() #0 {
  %1 = alloca i32, align 4
  %2 = alloca i32, align 4
  %3 = alloca i32, align 4
  %4 = alloca i32, align 4
  %5 = alloca i32, align 4
  %6 = alloca i32, align 4
  %7 = alloca i32, align 4
  %8 = alloca i32, align 4
  %9 = alloca i8*, align 8
  %10 = alloca i64, align 8
  %11 = alloca i64, align 8
  %12 = alloca i64, align 8
  %13 = alloca i64, align 8
  %14 = alloca i64, align 8
  %15 = alloca i64, align 8
  %16 = alloca i32, align 4
  store i32 0, i32* %1, align 4
  %17 = call i32 (i8*, ...) @__isoc99_scanf(i8* getelementptr inbounds ([6 x i8], [6 x i8]* @.str, i64 0, i64 0), i32* %5, i32* %6)
  %18 = load i32, i32* %5, align 4
  %19 = zext i32 %18 to i64
  %20 = load i32, i32* %6, align 4
  %21 = zext i32 %20 to i64
  %22 = call i8* @llvm.stacksave()
  store i8* %22, i8** %9, align 8
  %23 = mul nuw i64 %19, %21
  %24 = alloca i32, i64 %23, align 16
  store i64 %19, i64* %10, align 8
  store i64 %21, i64* %11, align 8
  store i32 0, i32* %2, align 4
  br label %25

25:                                               ; preds = %47, %0
  %26 = load i32, i32* %2, align 4
  %27 = load i32, i32* %5, align 4
  %28 = icmp slt i32 %26, %27
  br i1 %28, label %29, label %50

29:                                               ; preds = %25
  store i32 0, i32* %3, align 4
  br label %30

30:                                               ; preds = %43, %29
  %31 = load i32, i32* %3, align 4
  %32 = load i32, i32* %6, align 4
  %33 = icmp slt i32 %31, %32
  br i1 %33, label %34, label %46

34:                                               ; preds = %30
  %35 = load i32, i32* %2, align 4
  %36 = sext i32 %35 to i64
  %37 = mul nsw i64 %36, %21
  %38 = getelementptr inbounds i32, i32* %24, i64 %37
  %39 = load i32, i32* %3, align 4
  %40 = sext i32 %39 to i64
  %41 = getelementptr inbounds i32, i32* %38, i64 %40
  %42 = call i32 (i8*, ...) @__isoc99_scanf(i8* getelementptr inbounds ([3 x i8], [3 x i8]* @.str.1, i64 0, i64 0), i32* %41)
  br label %43

43:                                               ; preds = %34
  %44 = load i32, i32* %3, align 4
  %45 = add nsw i32 %44, 1
  store i32 %45, i32* %3, align 4
  br label %30

46:                                               ; preds = %30
  br label %47

47:                                               ; preds = %46
  %48 = load i32, i32* %2, align 4
  %49 = add nsw i32 %48, 1
  store i32 %49, i32* %2, align 4
  br label %25

50:                                               ; preds = %25
  %51 = call i32 (i8*, ...) @__isoc99_scanf(i8* getelementptr inbounds ([6 x i8], [6 x i8]* @.str, i64 0, i64 0), i32* %7, i32* %8)
  %52 = load i32, i32* %7, align 4
  %53 = zext i32 %52 to i64
  %54 = load i32, i32* %8, align 4
  %55 = zext i32 %54 to i64
  %56 = mul nuw i64 %53, %55
  %57 = alloca i32, i64 %56, align 16
  store i64 %53, i64* %12, align 8
  store i64 %55, i64* %13, align 8
  store i32 0, i32* %2, align 4
  br label %58

58:                                               ; preds = %80, %50
  %59 = load i32, i32* %2, align 4
  %60 = load i32, i32* %7, align 4
  %61 = icmp slt i32 %59, %60
  br i1 %61, label %62, label %83

62:                                               ; preds = %58
  store i32 0, i32* %3, align 4
  br label %63

63:                                               ; preds = %76, %62
  %64 = load i32, i32* %3, align 4
  %65 = load i32, i32* %8, align 4
  %66 = icmp slt i32 %64, %65
  br i1 %66, label %67, label %79

67:                                               ; preds = %63
  %68 = load i32, i32* %2, align 4
  %69 = sext i32 %68 to i64
  %70 = mul nsw i64 %69, %55
  %71 = getelementptr inbounds i32, i32* %57, i64 %70
  %72 = load i32, i32* %3, align 4
  %73 = sext i32 %72 to i64
  %74 = getelementptr inbounds i32, i32* %71, i64 %73
  %75 = call i32 (i8*, ...) @__isoc99_scanf(i8* getelementptr inbounds ([3 x i8], [3 x i8]* @.str.1, i64 0, i64 0), i32* %74)
  br label %76

76:                                               ; preds = %67
  %77 = load i32, i32* %3, align 4
  %78 = add nsw i32 %77, 1
  store i32 %78, i32* %3, align 4
  br label %63

79:                                               ; preds = %63
  br label %80

80:                                               ; preds = %79
  %81 = load i32, i32* %2, align 4
  %82 = add nsw i32 %81, 1
  store i32 %82, i32* %2, align 4
  br label %58

83:                                               ; preds = %58
  %84 = load i32, i32* %5, align 4
  %85 = zext i32 %84 to i64
  %86 = load i32, i32* %8, align 4
  %87 = zext i32 %86 to i64
  %88 = mul nuw i64 %85, %87
  %89 = alloca i32, i64 %88, align 16
  store i64 %85, i64* %14, align 8
  store i64 %87, i64* %15, align 8
  store i32 0, i32* %2, align 4
  br label %90

90:                                               ; preds = %140, %83
  %91 = load i32, i32* %2, align 4
  %92 = load i32, i32* %5, align 4
  %93 = icmp slt i32 %91, %92
  br i1 %93, label %94, label %143

94:                                               ; preds = %90
  store i32 0, i32* %3, align 4
  br label %95

95:                                               ; preds = %136, %94
  %96 = load i32, i32* %3, align 4
  %97 = load i32, i32* %8, align 4
  %98 = icmp slt i32 %96, %97
  br i1 %98, label %99, label %139

99:                                               ; preds = %95
  store i32 0, i32* %16, align 4
  store i32 0, i32* %4, align 4
  br label %100

100:                                              ; preds = %124, %99
  %101 = load i32, i32* %4, align 4
  %102 = load i32, i32* %6, align 4
  %103 = icmp slt i32 %101, %102
  br i1 %103, label %104, label %127

104:                                              ; preds = %100
  %105 = load i32, i32* %2, align 4
  %106 = sext i32 %105 to i64
  %107 = mul nsw i64 %106, %21
  %108 = getelementptr inbounds i32, i32* %24, i64 %107
  %109 = load i32, i32* %4, align 4
  %110 = sext i32 %109 to i64
  %111 = getelementptr inbounds i32, i32* %108, i64 %110
  %112 = load i32, i32* %111, align 4
  %113 = load i32, i32* %4, align 4
  %114 = sext i32 %113 to i64
  %115 = mul nsw i64 %114, %55
  %116 = getelementptr inbounds i32, i32* %57, i64 %115
  %117 = load i32, i32* %3, align 4
  %118 = sext i32 %117 to i64
  %119 = getelementptr inbounds i32, i32* %116, i64 %118
  %120 = load i32, i32* %119, align 4
  %121 = mul nsw i32 %112, %120
  %122 = load i32, i32* %16, align 4
  %123 = add nsw i32 %122, %121
  store i32 %123, i32* %16, align 4
  br label %124

124:                                              ; preds = %104
  %125 = load i32, i32* %4, align 4
  %126 = add nsw i32 %125, 1
  store i32 %126, i32* %4, align 4
  br label %100

127:                                              ; preds = %100
  %128 = load i32, i32* %16, align 4
  %129 = load i32, i32* %2, align 4
  %130 = sext i32 %129 to i64
  %131 = mul nsw i64 %130, %87
  %132 = getelementptr inbounds i32, i32* %89, i64 %131
  %133 = load i32, i32* %3, align 4
  %134 = sext i32 %133 to i64
  %135 = getelementptr inbounds i32, i32* %132, i64 %134
  store i32 %128, i32* %135, align 4
  br label %136

136:                                              ; preds = %127
  %137 = load i32, i32* %3, align 4
  %138 = add nsw i32 %137, 1
  store i32 %138, i32* %3, align 4
  br label %95

139:                                              ; preds = %95
  br label %140

140:                                              ; preds = %139
  %141 = load i32, i32* %2, align 4
  %142 = add nsw i32 %141, 1
  store i32 %142, i32* %2, align 4
  br label %90

143:                                              ; preds = %90
  store i32 0, i32* %2, align 4
  br label %144

144:                                              ; preds = %178, %143
  %145 = load i32, i32* %2, align 4
  %146 = load i32, i32* %5, align 4
  %147 = icmp slt i32 %145, %146
  br i1 %147, label %148, label %181

148:                                              ; preds = %144
  store i32 0, i32* %3, align 4
  br label %149

149:                                              ; preds = %164, %148
  %150 = load i32, i32* %3, align 4
  %151 = load i32, i32* %8, align 4
  %152 = sub nsw i32 %151, 1
  %153 = icmp slt i32 %150, %152
  br i1 %153, label %154, label %167

154:                                              ; preds = %149
  %155 = load i32, i32* %2, align 4
  %156 = sext i32 %155 to i64
  %157 = mul nsw i64 %156, %87
  %158 = getelementptr inbounds i32, i32* %89, i64 %157
  %159 = load i32, i32* %3, align 4
  %160 = sext i32 %159 to i64
  %161 = getelementptr inbounds i32, i32* %158, i64 %160
  %162 = load i32, i32* %161, align 4
  %163 = call i32 (i8*, ...) @printf(i8* getelementptr inbounds ([4 x i8], [4 x i8]* @.str.2, i64 0, i64 0), i32 %162)
  br label %164

164:                                              ; preds = %154
  %165 = load i32, i32* %3, align 4
  %166 = add nsw i32 %165, 1
  store i32 %166, i32* %3, align 4
  br label %149

167:                                              ; preds = %149
  %168 = load i32, i32* %2, align 4
  %169 = sext i32 %168 to i64
  %170 = mul nsw i64 %169, %87
  %171 = getelementptr inbounds i32, i32* %89, i64 %170
  %172 = load i32, i32* %8, align 4
  %173 = sub nsw i32 %172, 1
  %174 = sext i32 %173 to i64
  %175 = getelementptr inbounds i32, i32* %171, i64 %174
  %176 = load i32, i32* %175, align 4
  %177 = call i32 (i8*, ...) @printf(i8* getelementptr inbounds ([4 x i8], [4 x i8]* @.str.3, i64 0, i64 0), i32 %176)
  br label %178

178:                                              ; preds = %167
  %179 = load i32, i32* %2, align 4
  %180 = add nsw i32 %179, 1
  store i32 %180, i32* %2, align 4
  br label %144

181:                                              ; preds = %144
  %182 = load i8*, i8** %9, align 8
  call void @llvm.stackrestore(i8* %182)
  %183 = load i32, i32* %1, align 4
  ret i32 %183
}